; Function Attrs: mustprogress nofree norecurse nosync nounwind willreturn memory(readwrite, inaccessiblemem: none) uwtable
define hidden void @_ZN9Assembler6prefixE8Register(ptr nocapture noundef nonnull readonly align 8 dereferenceable(40) %0, i32 %1) local_unnamed_addr #8 align 2 {
  %3 = sext i32 %1 to i64
  %4 = getelementptr inbounds %"class.Register::RegisterImpl", ptr getelementptr inbounds (i8, ptr @all_RegisterImpls, i64 1), i64 %3
  %5 = ptrtoint ptr %4 to i64
  %6 = trunc i64 %5 to i32
  %7 = sub i32 %6, ptrtoint (ptr getelementptr inbounds (i8, ptr @all_RegisterImpls, i64 1) to i32)
  %8 = icmp sgt i32 %7, 15
  br i1 %8, label %9, label %18

9:                                                ; preds = %2
  %10 = and i32 %7, 16
  %11 = lshr i32 %7, 3
  %12 = and i32 %11, 1
  %.1.i = or disjoint i32 %12, %10
  %13 = getelementptr inbounds i8, ptr %0, i64 8
  %14 = load ptr, ptr %13, align 8
  %15 = getelementptr inbounds i8, ptr %14, i64 16
  %16 = load ptr, ptr %15, align 8
  %17 = getelementptr inbounds i8, ptr %16, i64 1
  store i8 -43, ptr %16, align 1
  store ptr %17, ptr %15, align 8
  %.0.i.i2.i = trunc nuw nsw i32 %.1.i to i8
  br label %.sink.split

18:                                               ; preds = %2
  %19 = icmp sgt i32 %7, 7
  br i1 %19, label %20, label %25

20:                                               ; preds = %18
  %21 = getelementptr inbounds i8, ptr %0, i64 8
  br label %.sink.split

.sink.split:                                      ; preds = %9, %20
  %.sink7.in = phi ptr [ %21, %20 ], [ %13, %9 ]
  %.sink4 = phi i8 [ 65, %20 ], [ %.0.i.i2.i, %9 ]
  %.sink7 = load ptr, ptr %.sink7.in, align 8
  %22 = getelementptr inbounds i8, ptr %.sink7, i64 16
  %23 = load ptr, ptr %22, align 8
  %24 = getelementptr inbounds i8, ptr %23, i64 1
  store i8 %.sink4, ptr %23, align 1
  store ptr %24, ptr %22, align 8
  br label %25

25:                                               ; preds = %.sink.split, %18
  ret void
}